; ModuleID = '14/1289.c'
source_filename = "14/1289.c"
target datalayout = "e-m:e-p270:32:32-p271:32:32-p272:64:64-i64:64-f80:128-n8:16:32:64-S128"
target triple = "x86_64-pc-linux-gnu"

%struct.student = type { i32, i32, i32, i32, %struct.student* }

@n = common dso_local global i32 0, align 4
@.str = private unnamed_addr constant [9 x i8] c"%d %d %d\00", align 1
@.str.1 = private unnamed_addr constant [3 x i8] c"%d\00", align 1
@.str.2 = private unnamed_addr constant [7 x i8] c"%d %d\0A\00", align 1

; Function Attrs: noinline nounwind uwtable
define dso_local %struct.student* @creat() #0 {
  %1 = alloca i32, align 4
  %2 = alloca %struct.student*, align 8
  %3 = alloca %struct.student*, align 8
  %4 = alloca %struct.student*, align 8
  %5 = call noalias i8* @malloc(i64 24) #3
  %6 = bitcast i8* %5 to %struct.student*
  store %struct.student* %6, %struct.student** %2, align 8
  %7 = load %struct.student*, %struct.student** %2, align 8
  store %struct.student* %7, %struct.student** %4, align 8
  store %struct.student* %7, %struct.student** %3, align 8
  store i32 0, i32* %1, align 4
  br label %8

8:                                                ; preds = %35, %0
  %9 = load i32, i32* %1, align 4
  %10 = load i32, i32* @n, align 4
  %11 = icmp slt i32 %9, %10
  br i1 %11, label %12, label %38

12:                                               ; preds = %8
  %13 = load %struct.student*, %struct.student** %3, align 8
  store %struct.student* %13, %struct.student** %4, align 8
  %14 = call noalias i8* @malloc(i64 24) #3
  %15 = bitcast i8* %14 to %struct.student*
  store %struct.student* %15, %struct.student** %3, align 8
  %16 = load %struct.student*, %struct.student** %3, align 8
  %17 = load %struct.student*, %struct.student** %4, align 8
  %18 = getelementptr inbounds %struct.student, %struct.student* %17, i32 0, i32 4
  store %struct.student* %16, %struct.student** %18, align 8
  %19 = load %struct.student*, %struct.student** %4, align 8
  %20 = getelementptr inbounds %struct.student, %struct.student* %19, i32 0, i32 0
  %21 = load %struct.student*, %struct.student** %4, align 8
  %22 = getelementptr inbounds %struct.student, %struct.student* %21, i32 0, i32 1
  %23 = load %struct.student*, %struct.student** %4, align 8
  %24 = getelementptr inbounds %struct.student, %struct.student* %23, i32 0, i32 2
  %25 = call i32 (i8*, ...) @__isoc99_scanf(i8* getelementptr inbounds ([9 x i8], [9 x i8]* @.str, i64 0, i64 0), i32* %20, i32* %22, i32* %24)
  %26 = load %struct.student*, %struct.student** %4, align 8
  %27 = getelementptr inbounds %struct.student, %struct.student* %26, i32 0, i32 1
  %28 = load i32, i32* %27, align 4
  %29 = load %struct.student*, %struct.student** %4, align 8
  %30 = getelementptr inbounds %struct.student, %struct.student* %29, i32 0, i32 2
  %31 = load i32, i32* %30, align 8
  %32 = add nsw i32 %28, %31
  %33 = load %struct.student*, %struct.student** %4, align 8
  %34 = getelementptr inbounds %struct.student, %struct.student* %33, i32 0, i32 3
  store i32 %32, i32* %34, align 4
  br label %35

35:                                               ; preds = %12
  %36 = load i32, i32* %1, align 4
  %37 = add nsw i32 %36, 1
  store i32 %37, i32* %1, align 4
  br label %8

38:                                               ; preds = %8
  %39 = load %struct.student*, %struct.student** %4, align 8
  %40 = getelementptr inbounds %struct.student, %struct.student* %39, i32 0, i32 4
  store %struct.student* null, %struct.student** %40, align 8
  %41 = load %struct.student*, %struct.student** %2, align 8
  ret %struct.student* %41
}

; Function Attrs: nounwind
declare dso_local noalias i8* @malloc(i64) #1

declare dso_local i32 @__isoc99_scanf(i8*, ...) #2

; Function Attrs: noinline nounwind uwtable
define dso_local i32 @main() #0 {
  %1 = alloca i32, align 4
  %2 = alloca i32, align 4
  %3 = alloca i32, align 4
  %4 = alloca i32, align 4
  %5 = alloca %struct.student*, align 8
  %6 = alloca %struct.student*, align 8
  %7 = alloca %struct.student*, align 8
  store i32 0, i32* %1, align 4
  store i32 0, i32* %4, align 4
  %8 = call i32 (i8*, ...) @__isoc99_scanf(i8* getelementptr inbounds ([3 x i8], [3 x i8]* @.str.1, i64 0, i64 0), i32* @n)
  %9 = call %struct.student* @creat()
  store %struct.student* %9, %struct.student** %5, align 8
  %10 = load %struct.student*, %struct.student** %5, align 8
  store %struct.student* %10, %struct.student** %7, align 8
  store %struct.student* %10, %struct.student** %6, align 8
  store i32 0, i32* %2, align 4
  br label %11

11:                                               ; preds = %45, %0
  %12 = load i32, i32* %2, align 4
  %13 = icmp slt i32 %12, 3
  br i1 %13, label %14, label %48

14:                                               ; preds = %11
  %15 = load %struct.student*, %struct.student** %5, align 8
  store %struct.student* %15, %struct.student** %6, align 8
  br label %16

16:                                               ; preds = %35, %14
  %17 = load %struct.student*, %struct.student** %6, align 8
  %18 = getelementptr inbounds %struct.student, %struct.student* %17, i32 0, i32 4
  %19 = load %struct.student*, %struct.student** %18, align 8
  %20 = icmp ne %struct.student* %19, null
  br i1 %20, label %21, label %39

21:                                               ; preds = %16
  %22 = load %struct.student*, %struct.student** %6, align 8
  %23 = getelementptr inbounds %struct.student, %struct.student* %22, i32 0, i32 3
  %24 = load i32, i32* %23, align 4
  %25 = load i32, i32* %4, align 4
  %26 = icmp sgt i32 %24, %25
  br i1 %26, label %27, label %35

27:                                               ; preds = %21
  %28 = load %struct.student*, %struct.student** %6, align 8
  %29 = getelementptr inbounds %struct.student, %struct.student* %28, i32 0, i32 3
  %30 = load i32, i32* %29, align 4
  store i32 %30, i32* %4, align 4
  %31 = load %struct.student*, %struct.student** %6, align 8
  %32 = getelementptr inbounds %struct.student, %struct.student* %31, i32 0, i32 0
  %33 = load i32, i32* %32, align 8
  store i32 %33, i32* %3, align 4
  %34 = load %struct.student*, %struct.student** %6, align 8
  store %struct.student* %34, %struct.student** %7, align 8
  br label %35

35:                                               ; preds = %27, %21
  %36 = load %struct.student*, %struct.student** %6, align 8
  %37 = getelementptr inbounds %struct.student, %struct.student* %36, i32 0, i32 4
  %38 = load %struct.student*, %struct.student** %37, align 8
  store %struct.student* %38, %struct.student** %6, align 8
  br label %16

39:                                               ; preds = %16
  %40 = load i32, i32* %3, align 4
  %41 = load i32, i32* %4, align 4
  %42 = call i32 (i8*, ...) @printf(i8* getelementptr inbounds ([7 x i8], [7 x i8]* @.str.2, i64 0, i64 0), i32 %40, i32 %41)
  %43 = load %struct.student*, %struct.student** %7, align 8
  %44 = getelementptr inbounds %struct.student, %struct.student* %43, i32 0, i32 3
  store i32 0, i32* %44, align 4
  store i32 0, i32* %4, align 4
  br label %45

45:                                               ; preds = %39
  %46 = load i32, i32* %2, align 4
  %47 = add nsw i32 %46, 1
  store i32 %47, i32* %2, align 4
  br label %11

48:                                               ; preds = %11
  ret i32 0
}

declare dso_local i32 @printf(i8*, ...) #2


!llvm.module.flags = !{!0}
!llvm.ident = !{!1}

!0 = !{i32 1, !"wchar_size", i32 4}
!1 = !{!"clang version 10.0.0-4ubuntu1 "}
